target datalayout = "e-m:e-p270:32:32-p271:32:32-p272:64:64-i64:64-i128:128-f80:128-n8:16:32:64-S128"
target triple = "x86_64-pc-linux-gnu"

; Function Attrs: nounwind uwtable
define internal i32 @SzReadFileNames(ptr noundef %0, i64 noundef %1, i32 noundef %2, ptr noundef %3) #0 {
  %5 = alloca i32, align 4
  %6 = alloca ptr, align 8
  %7 = alloca i64, align 8
  %8 = alloca i32, align 4
  %9 = alloca ptr, align 8
  %10 = alloca i32, align 4
  %11 = alloca i64, align 8
  store ptr %0, ptr %6, align 8
  store i64 %1, ptr %7, align 8
  store i32 %2, ptr %8, align 4
  store ptr %3, ptr %9, align 8
  store i64 0, ptr %11, align 8
  store i32 0, ptr %10, align 4
  br label %12

12:                                               ; preds = %51, %4
  %13 = load i32, ptr %10, align 4
  %14 = load i32, ptr %8, align 4
  %15 = icmp ult i32 %13, %14
  br i1 %15, label %16, label %54

16:                                               ; preds = %12
  %17 = load i64, ptr %11, align 8
  %18 = load ptr, ptr %9, align 8
  %19 = load i32, ptr %10, align 4
  %20 = zext i32 %19 to i64
  %21 = getelementptr inbounds i64, ptr %18, i64 %20
  store i64 %17, ptr %21, align 8
  br label %22

22:                                               ; preds = %45, %16
  %23 = load i64, ptr %11, align 8
  %24 = load i64, ptr %7, align 8
  %25 = icmp uge i64 %23, %24
  br i1 %25, label %26, label %27

26:                                               ; preds = %22
  store i32 16, ptr %5, align 4
  br label %64

27:                                               ; preds = %22
  %28 = load ptr, ptr %6, align 8
  %29 = load i64, ptr %11, align 8
  %30 = mul i64 %29, 2
  %31 = getelementptr inbounds i8, ptr %28, i64 %30
  %32 = load i8, ptr %31, align 1
  %33 = zext i8 %32 to i32
  %34 = icmp eq i32 %33, 0
  br i1 %34, label %35, label %45

35:                                               ; preds = %27
  %36 = load ptr, ptr %6, align 8
  %37 = load i64, ptr %11, align 8
  %38 = mul i64 %37, 2
  %39 = add i64 %38, 1
  %40 = getelementptr inbounds i8, ptr %36, i64 %39
  %41 = load i8, ptr %40, align 1
  %42 = zext i8 %41 to i32
  %43 = icmp eq i32 %42, 0
  br i1 %43, label %44, label %45

44:                                               ; preds = %35
  br label %48

45:                                               ; preds = %35, %27
  %46 = load i64, ptr %11, align 8
  %47 = add i64 %46, 1
  store i64 %47, ptr %11, align 8
  br label %22

48:                                               ; preds = %44
  %49 = load i64, ptr %11, align 8
  %50 = add i64 %49, 1
  store i64 %50, ptr %11, align 8
  br label %51

51:                                               ; preds = %48
  %52 = load i32, ptr %10, align 4
  %53 = add i32 %52, 1
  store i32 %53, ptr %10, align 4
  br label %12

54:                                               ; preds = %12
  %55 = load i64, ptr %11, align 8
  %56 = load ptr, ptr %9, align 8
  %57 = load i32, ptr %10, align 4
  %58 = zext i32 %57 to i64
  %59 = getelementptr inbounds i64, ptr %56, i64 %58
  store i64 %55, ptr %59, align 8
  %60 = load i64, ptr %11, align 8
  %61 = load i64, ptr %7, align 8
  %62 = icmp eq i64 %60, %61
  %63 = select i1 %62, i32 0, i32 16
  store i32 %63, ptr %5, align 4
  br label %64

64:                                               ; preds = %54, %26
  %65 = load i32, ptr %5, align 4
  ret i32 %65
}